target datalayout = "e-m:e-p270:32:32-p271:32:32-p272:64:64-i64:64-i128:128-f80:128-n8:16:32:64-S128"
target triple = "x86_64-pc-linux-gnu"

%"struct.cv::videostab::RansacParams" = type { i32, float, float, float }
%"class.cv::videostab::MotionEstimatorRansacL2" = type { %"class.cv::videostab::MotionEstimatorBase.base", %"struct.cv::videostab::RansacParams", float }
%"class.cv::videostab::MotionEstimatorBase.base" = type <{ ptr, i32 }>

; Function Attrs: mustprogress nounwind uwtable
define linkonce_odr hidden void @_ZN2cv9videostab19MotionEstimatorBaseD2Ev(ptr noundef nonnull align 8 dereferenceable(12) %0) unnamed_addr #7 comdat align 2 {
  %2 = alloca ptr, align 8
  store ptr %0, ptr %2, align 8
  ret void
}

; Function Attrs: mustprogress nounwind uwtable
define linkonce_odr hidden void @_ZN2cv9videostab23MotionEstimatorRansacL217setMinInlierRatioEf(ptr noundef nonnull align 8 dereferenceable(32) %0, float noundef %1) #7 comdat align 2 {
  %3 = alloca ptr, align 8
  %4 = alloca float, align 4
  store ptr %0, ptr %3, align 8
  store float %1, ptr %4, align 4
  %5 = load ptr, ptr %3, align 8
  %6 = load float, ptr %4, align 4
  %7 = getelementptr inbounds %"class.cv::videostab::MotionEstimatorRansacL2", ptr %5, i32 0, i32 2
  store float %6, ptr %7, align 4
  ret void
}

; Function Attrs: mustprogress nounwind uwtable
define linkonce_odr hidden void @_ZN2cv9videostab23MotionEstimatorRansacL215setRansacParamsERKNS0_12RansacParamsE(ptr noundef nonnull align 8 dereferenceable(32) %0, ptr noundef nonnull align 4 dereferenceable(16) %1) #7 comdat align 2 {
  %3 = alloca ptr, align 8
  %4 = alloca ptr, align 8
  store ptr %0, ptr %3, align 8
  store ptr %1, ptr %4, align 8
  %5 = load ptr, ptr %3, align 8
  %6 = load ptr, ptr %4, align 8
  %7 = getelementptr inbounds %"class.cv::videostab::MotionEstimatorRansacL2", ptr %5, i32 0, i32 1
  call void @llvm.memcpy.p0.p0.i64(ptr align 4 %7, ptr align 4 %6, i64 16, i1 false)
  ret void
}

; Function Attrs: mustprogress nounwind uwtable
define linkonce_odr hidden void @_ZN2cv9videostab12RansacParamsC2Ev(ptr noundef nonnull align 4 dereferenceable(16) %0) unnamed_addr #7 comdat align 2 {
  %2 = alloca ptr, align 8
  store ptr %0, ptr %2, align 8
  %3 = load ptr, ptr %2, align 8
  %4 = getelementptr inbounds %"struct.cv::videostab::RansacParams", ptr %3, i32 0, i32 0
  store i32 0, ptr %4, align 4
  %5 = getelementptr inbounds %"struct.cv::videostab::RansacParams", ptr %3, i32 0, i32 1
  store float 0.000000e+00, ptr %5, align 4
  %6 = getelementptr inbounds %"struct.cv::videostab::RansacParams", ptr %3, i32 0, i32 2
  store float 0.000000e+00, ptr %6, align 4
  %7 = getelementptr inbounds %"struct.cv::videostab::RansacParams", ptr %3, i32 0, i32 3
  store float 0.000000e+00, ptr %7, align 4
  ret void
}

; Function Attrs: mustprogress uwtable
define linkonce_odr hidden void @_ZN2cv9videostab19MotionEstimatorBaseC2ENS0_11MotionModelE(ptr noundef nonnull align 8 dereferenceable(12) %0, i32 noundef %1) unnamed_addr #4 comdat align 2 {
  %3 = alloca ptr, align 8
  %4 = alloca i32, align 4
  store ptr %0, ptr %3, align 8
  store i32 %1, ptr %4, align 4
  %5 = load ptr, ptr %3, align 8
  store ptr getelementptr inbounds inrange(-16, 40) ({ [7 x ptr] }, ptr @_ZTVN2cv9videostab19MotionEstimatorBaseE, i32 0, i32 0, i32 2), ptr %5, align 8
  %6 = load i32, ptr %4, align 4
  %7 = load ptr, ptr %5, align 8
  %8 = getelementptr inbounds ptr, ptr %7, i64 2
  %9 = load ptr, ptr %8, align 8
  call void %9(ptr noundef nonnull align 8 dereferenceable(12) %5, i32 noundef %6)
  ret void
}

; Function Attrs: mustprogress uwtable
define void @_ZN2cv9videostab23MotionEstimatorRansacL2C2ENS0_11MotionModelE(ptr noundef nonnull align 8 dereferenceable(32) %0, i32 noundef %1) unnamed_addr #6 align 2 personality ptr @__gxx_personality_v0 {
  %3 = alloca ptr, align 8
  %4 = alloca i32, align 4
  %5 = alloca ptr, align 8
  %6 = alloca i32, align 4
  %7 = alloca %"struct.cv::videostab::RansacParams", align 4
  store ptr %0, ptr %3, align 8
  store i32 %1, ptr %4, align 4
  %8 = load ptr, ptr %3, align 8
  %9 = load i32, ptr %4, align 4
  call void @_ZN2cv9videostab19MotionEstimatorBaseC2ENS0_11MotionModelE(ptr noundef nonnull align 8 dereferenceable(12) %8, i32 noundef %9)
  store ptr getelementptr inbounds inrange(-16, 40) ({ [7 x ptr] }, ptr @_ZTVN2cv9videostab23MotionEstimatorRansacL2E, i32 0, i32 0, i32 2), ptr %8, align 8
  %10 = getelementptr inbounds %"class.cv::videostab::MotionEstimatorRansacL2", ptr %8, i32 0, i32 1
  invoke void @_ZN2cv9videostab12RansacParamsC2Ev(ptr noundef nonnull align 4 dereferenceable(16) %10)
          to label %11 unwind label %21

11:                                               ; preds = %2
  %12 = load i32, ptr %4, align 4
  %13 = invoke { i64, <2 x float> } @_ZN2cv9videostab12RansacParams15default2dMotionENS0_11MotionModelE(i32 noundef %12)
          to label %14 unwind label %21

14:                                               ; preds = %11
  %15 = getelementptr inbounds { i64, <2 x float> }, ptr %7, i32 0, i32 0
  %16 = extractvalue { i64, <2 x float> } %13, 0
  store i64 %16, ptr %15, align 4
  %17 = getelementptr inbounds { i64, <2 x float> }, ptr %7, i32 0, i32 1
  %18 = extractvalue { i64, <2 x float> } %13, 1
  store <2 x float> %18, ptr %17, align 4
  invoke void @_ZN2cv9videostab23MotionEstimatorRansacL215setRansacParamsERKNS0_12RansacParamsE(ptr noundef nonnull align 8 dereferenceable(32) %8, ptr noundef nonnull align 4 dereferenceable(16) %7)
          to label %19 unwind label %21

19:                                               ; preds = %14
  invoke void @_ZN2cv9videostab23MotionEstimatorRansacL217setMinInlierRatioEf(ptr noundef nonnull align 8 dereferenceable(32) %8, float noundef 0x3FB99999A0000000)
          to label %20 unwind label %21

20:                                               ; preds = %19
  ret void

21:                                               ; preds = %19, %14, %11, %2
  %22 = landingpad { ptr, i32 }
          cleanup
  %23 = extractvalue { ptr, i32 } %22, 0
  store ptr %23, ptr %5, align 8
  %24 = extractvalue { ptr, i32 } %22, 1
  store i32 %24, ptr %6, align 4
  call void @_ZN2cv9videostab19MotionEstimatorBaseD2Ev(ptr noundef nonnull align 8 dereferenceable(12) %8) #3
  br label %25

25:                                               ; preds = %21
  %26 = load ptr, ptr %5, align 8
  %27 = load i32, ptr %6, align 4
  %28 = insertvalue { ptr, i32 } poison, ptr %26, 0
  %29 = insertvalue { ptr, i32 } %28, i32 %27, 1
  resume { ptr, i32 } %29
}