; Function Attrs: mustprogress uwtable
define void @_ZN2cv9videostab23MotionEstimatorRansacL2C2ENS0_11MotionModelE(ptr nocapture noundef nonnull writeonly align 8 dereferenceable(32) %0, i32 noundef %1) unnamed_addr #5 align 2 personality ptr @__gxx_personality_v0 {
  %3 = getelementptr inbounds i8, ptr %0, i64 8
  store i32 %1, ptr %3, align 8
  store ptr getelementptr inbounds inrange(-16, 40) (i8, ptr @_ZTVN2cv9videostab23MotionEstimatorRansacL2E, i64 16), ptr %0, align 8
  %4 = getelementptr inbounds i8, ptr %0, i64 12
  tail call void @llvm.memset.p0.i64(ptr noundef nonnull align 4 dereferenceable(16) %4, i8 0, i64 16, i1 false)
  %5 = tail call { i64, <2 x float> } @_ZN2cv9videostab12RansacParams15default2dMotionENS0_11MotionModelE(i32 noundef %1)
  %6 = extractvalue { i64, <2 x float> } %5, 0
  %7 = extractvalue { i64, <2 x float> } %5, 1
  store i64 %6, ptr %4, align 4
  %.sroa.2.0..sroa_idx = getelementptr inbounds i8, ptr %0, i64 20
  store <2 x float> %7, ptr %.sroa.2.0..sroa_idx, align 4
  %8 = getelementptr inbounds i8, ptr %0, i64 28
  store float 0x3FB99999A0000000, ptr %8, align 4
  ret void
}